target datalayout = "e-m:e-p270:32:32-p271:32:32-p272:64:64-i64:64-i128:128-f80:128-n8:16:32:64-S128"
target triple = "x86_64-pc-linux-gnu"

%struct.tm = type { i32, i32, i32, i32, i32, i32, i32, i32, i32, i64, ptr }
%struct.timespec = type { i64, i64 }

@.str.22 = private unnamed_addr constant [2 x i8] c"\0A\00", align 1
@.str.23 = private unnamed_addr constant [19 x i8] c"*Invalid datetime*\00", align 1

; Function Attrs: nounwind uwtable
define hidden ptr @file_fmtdatetime(ptr noundef %0, i64 noundef %1, i64 noundef %2, i32 noundef %3) #0 {
  %5 = alloca ptr, align 8
  %6 = alloca ptr, align 8
  %7 = alloca i64, align 8
  %8 = alloca i64, align 8
  %9 = alloca i32, align 4
  %10 = alloca ptr, align 8
  %11 = alloca i64, align 8
  %12 = alloca ptr, align 8
  %13 = alloca %struct.tm, align 8
  %14 = alloca %struct.timespec, align 8
  %15 = alloca i32, align 4
  store ptr %0, ptr %6, align 8, !tbaa !22
  store i64 %1, ptr %7, align 8, !tbaa !20
  store i64 %2, ptr %8, align 8, !tbaa !20
  store i32 %3, ptr %9, align 4, !tbaa !30
  call void @llvm.lifetime.start.p0(i64 8, ptr %10) #8
  call void @llvm.lifetime.start.p0(i64 8, ptr %11) #8
  call void @llvm.lifetime.start.p0(i64 8, ptr %12) #8
  call void @llvm.lifetime.start.p0(i64 56, ptr %13) #8
  %16 = load i32, ptr %9, align 4, !tbaa !30
  %17 = and i32 %16, 2
  %18 = icmp ne i32 %17, 0
  br i1 %18, label %19, label %24

19:                                               ; preds = %4
  call void @llvm.lifetime.start.p0(i64 16, ptr %14) #8
  %20 = load i64, ptr %8, align 8, !tbaa !20
  %21 = call i32 @cdf_timestamp_to_timespec(ptr noundef %14, i64 noundef %20)
  %22 = getelementptr inbounds nuw %struct.timespec, ptr %14, i32 0, i32 0
  %23 = load i64, ptr %22, align 8, !tbaa !31
  store i64 %23, ptr %11, align 8, !tbaa !20
  call void @llvm.lifetime.end.p0(i64 16, ptr %14) #8
  br label %26

24:                                               ; preds = %4
  %25 = load i64, ptr %8, align 8, !tbaa !20
  store i64 %25, ptr %11, align 8, !tbaa !20
  br label %26

26:                                               ; preds = %24, %19
  %27 = load i64, ptr %11, align 8, !tbaa !20
  %28 = icmp sgt i64 %27, 253402318799
  br i1 %28, label %29, label %30

29:                                               ; preds = %26
  br label %55

30:                                               ; preds = %26
  %31 = load i32, ptr %9, align 4, !tbaa !30
  %32 = and i32 %31, 1
  %33 = icmp ne i32 %32, 0
  br i1 %33, label %34, label %36

34:                                               ; preds = %30
  call void @tzset() #8
  %35 = call ptr @localtime_r(ptr noundef %11, ptr noundef %13) #8
  store ptr %35, ptr %12, align 8, !tbaa !33
  br label %38

36:                                               ; preds = %30
  %37 = call ptr @gmtime_r(ptr noundef %11, ptr noundef %13) #8
  store ptr %37, ptr %12, align 8, !tbaa !33
  br label %38

38:                                               ; preds = %36, %34
  %39 = load ptr, ptr %12, align 8, !tbaa !33
  %40 = icmp eq ptr %39, null
  br i1 %40, label %41, label %42

41:                                               ; preds = %38
  br label %55

42:                                               ; preds = %38
  %43 = load ptr, ptr %12, align 8, !tbaa !33
  %44 = load ptr, ptr %6, align 8, !tbaa !22
  %45 = call ptr @asctime_r(ptr noundef %43, ptr noundef %44) #8
  store ptr %45, ptr %10, align 8, !tbaa !22
  %46 = load ptr, ptr %10, align 8, !tbaa !22
  %47 = icmp eq ptr %46, null
  br i1 %47, label %48, label %49

48:                                               ; preds = %42
  br label %55

49:                                               ; preds = %42
  %50 = load ptr, ptr %10, align 8, !tbaa !22
  %51 = load ptr, ptr %10, align 8, !tbaa !22
  %52 = call i64 @strcspn(ptr noundef %51, ptr noundef @.str.22) #9
  %53 = getelementptr inbounds nuw i8, ptr %50, i64 %52
  store i8 0, ptr %53, align 1, !tbaa !11
  %54 = load ptr, ptr %10, align 8, !tbaa !22
  store ptr %54, ptr %5, align 8
  store i32 1, ptr %15, align 4
  br label %60

55:                                               ; preds = %48, %41, %29
  %56 = load ptr, ptr %6, align 8, !tbaa !22
  %57 = load i64, ptr %7, align 8, !tbaa !20
  %58 = call i64 @php_strlcpy(ptr noundef %56, ptr noundef @.str.23, i64 noundef %57)
  %59 = load ptr, ptr %6, align 8, !tbaa !22
  store ptr %59, ptr %5, align 8
  store i32 1, ptr %15, align 4
  br label %60

60:                                               ; preds = %55, %49
  call void @llvm.lifetime.end.p0(i64 56, ptr %13) #8
  call void @llvm.lifetime.end.p0(i64 8, ptr %12) #8
  call void @llvm.lifetime.end.p0(i64 8, ptr %11) #8
  call void @llvm.lifetime.end.p0(i64 8, ptr %10) #8
  %61 = load ptr, ptr %5, align 8
  ret ptr %61
}