; Function Attrs: nounwind uwtable
define hidden ptr @file_fmtdatetime(ptr noundef %0, i64 noundef %1, i64 noundef %2, i32 noundef %3) local_unnamed_addr #4 {
  %5 = alloca i64, align 8
  %6 = alloca %struct.tm, align 8
  %7 = alloca %struct.timespec, align 8
  call void @llvm.lifetime.start.p0(i64 8, ptr nonnull %5) #13
  call void @llvm.lifetime.start.p0(i64 56, ptr nonnull %6) #13
  %8 = and i32 %3, 2
  %.not = icmp eq i32 %8, 0
  br i1 %.not, label %12, label %9

9:                                                ; preds = %4
  call void @llvm.lifetime.start.p0(i64 16, ptr nonnull %7) #13
  %10 = call i32 @cdf_timestamp_to_timespec(ptr noundef nonnull %7, i64 noundef %2) #13
  %11 = load i64, ptr %7, align 8, !tbaa !28
  call void @llvm.lifetime.end.p0(i64 16, ptr nonnull %7) #13
  br label %12

12:                                               ; preds = %4, %9
  %.sink = phi i64 [ %11, %9 ], [ %2, %4 ]
  store i64 %.sink, ptr %5, align 8, !tbaa !17
  %13 = icmp sgt i64 %.sink, 253402318799
  br i1 %13, label %28, label %14

14:                                               ; preds = %12
  %15 = and i32 %3, 1
  %.not16 = icmp eq i32 %15, 0
  br i1 %.not16, label %18, label %16

16:                                               ; preds = %14
  call void @tzset() #13
  %17 = call ptr @localtime_r(ptr noundef nonnull %5, ptr noundef nonnull %6) #13
  br label %20

18:                                               ; preds = %14
  %19 = call ptr @gmtime_r(ptr noundef nonnull %5, ptr noundef nonnull %6) #13
  br label %20

20:                                               ; preds = %18, %16
  %.0 = phi ptr [ %17, %16 ], [ %19, %18 ]
  %21 = icmp eq ptr %.0, null
  br i1 %21, label %28, label %22

22:                                               ; preds = %20
  %23 = call ptr @asctime_r(ptr noundef nonnull %.0, ptr noundef %0) #13
  %24 = icmp eq ptr %23, null
  br i1 %24, label %28, label %25

25:                                               ; preds = %22
  %26 = call i64 @strcspn(ptr noundef nonnull %23, ptr noundef nonnull @.str.22) #15
  %27 = getelementptr inbounds nuw i8, ptr %23, i64 %26
  store i8 0, ptr %27, align 1, !tbaa !9
  br label %30

28:                                               ; preds = %22, %20, %12
  %29 = call i64 @php_strlcpy(ptr noundef %0, ptr noundef nonnull @.str.23, i64 noundef %1) #13
  br label %30

30:                                               ; preds = %28, %25
  %.014 = phi ptr [ %0, %28 ], [ %23, %25 ]
  call void @llvm.lifetime.end.p0(i64 56, ptr nonnull %6) #13
  call void @llvm.lifetime.end.p0(i64 8, ptr nonnull %5) #13
  ret ptr %.014
}